; Function Attrs: mustprogress nofree norecurse nosync nounwind sspstrong willreturn memory(argmem: readwrite) uwtable
define internal void @replication_child_perm(ptr noundef readonly captures(none) %bs, ptr readnone captures(none) %c, i32 noundef %role, ptr readnone captures(none) %reopen_queue, i64 %perm, i64 %shared, ptr noundef writeonly captures(none) initializes((0, 8)) %nperm, ptr noundef writeonly captures(none) initializes((0, 8)) %nshared) #2 {
entry:
  %and = lshr i32 %role, 4
  %and.lobit = and i32 %and, 1
  %. = zext nneg i32 %and.lobit to i64
  store i64 %., ptr %nperm, align 8
  %0 = load i32, ptr %bs, align 8
  %and1 = and i32 %0, 2050
  %cmp = icmp eq i32 %and1, 2
  br i1 %cmp, label %if.then2, label %if.end3

if.then2:                                         ; preds = %entry
  %or = or disjoint i64 %., 2
  store i64 %or, ptr %nperm, align 8
  br label %if.end3

if.end3:                                          ; preds = %if.then2, %entry
  store i64 7, ptr %nshared, align 8
  ret void
}